; Function Attrs: uwtable
define internal void @_ZThn16_NK7rocksdb12_GLOBAL__N_126BackupEngineImplThreadSafe13GetBackupInfoEjPNS_10BackupInfoEb(ptr noalias sret(%"class.rocksdb::Status") align 8 %agg.result, ptr noundef %this, i32 noundef %backup_id, ptr noundef %backup_info, i1 noundef zeroext %include_file_details) unnamed_addr #14 align 2 personality ptr @__gxx_personality_v0 {
entry:
  %mutex_.i = getelementptr inbounds i8, ptr %this, i64 8
  tail call void @_ZN7rocksdb4port7RWMutex8ReadLockEv(ptr noundef nonnull align 8 dereferenceable(56) %mutex_.i), !noalias !62
  %impl_.i = getelementptr inbounds i8, ptr %this, i64 64
  invoke fastcc void @_ZNK7rocksdb12_GLOBAL__N_116BackupEngineImpl13GetBackupInfoEjPNS_10BackupInfoEb(ptr noalias align 8 %agg.result, ptr noundef nonnull align 8 dereferenceable(816) %impl_.i, i32 noundef %backup_id, ptr noundef %backup_info, i1 noundef zeroext %include_file_details)
          to label %invoke.cont.i unwind label %lpad.i

invoke.cont.i:                                    ; preds = %entry
  invoke void @_ZN7rocksdb4port7RWMutex10ReadUnlockEv(ptr noundef nonnull align 8 dereferenceable(56) %mutex_.i)
          to label %_ZNK7rocksdb12_GLOBAL__N_126BackupEngineImplThreadSafe13GetBackupInfoEjPNS_10BackupInfoEb.exit unwind label %terminate.lpad.i.i

terminate.lpad.i.i:                               ; preds = %invoke.cont.i
  %0 = landingpad { ptr, i32 }
          catch ptr null
  %1 = extractvalue { ptr, i32 } %0, 0
  tail call void @__clang_call_terminate(ptr %1) #35
  unreachable

lpad.i:                                           ; preds = %entry
  %2 = landingpad { ptr, i32 }
          cleanup
  invoke void @_ZN7rocksdb4port7RWMutex10ReadUnlockEv(ptr noundef nonnull align 8 dereferenceable(56) %mutex_.i)
          to label %_ZN7rocksdb8ReadLockD2Ev.exit2.i unwind label %terminate.lpad.i1.i

terminate.lpad.i1.i:                              ; preds = %lpad.i
  %3 = landingpad { ptr, i32 }
          catch ptr null
  %4 = extractvalue { ptr, i32 } %3, 0
  tail call void @__clang_call_terminate(ptr %4) #35
  unreachable

_ZN7rocksdb8ReadLockD2Ev.exit2.i:                 ; preds = %lpad.i
  resume { ptr, i32 } %2

_ZNK7rocksdb12_GLOBAL__N_126BackupEngineImplThreadSafe13GetBackupInfoEjPNS_10BackupInfoEb.exit: ; preds = %invoke.cont.i
  ret void
}